target datalayout = "e-m:e-p270:32:32-p271:32:32-p272:64:64-i64:64-i128:128-f80:128-n8:16:32:64-S128"
target triple = "x86_64-pc-linux-gnu"

%struct.TableFunc = type { i32, i32, ptr, ptr, ptr, ptr, ptr, ptr, ptr, ptr, ptr, ptr, ptr, ptr, ptr, ptr, i32, i32 }

; Function Attrs: nounwind uwtable
define internal void @get_tablefunc(ptr noundef %0, ptr noundef %1, i1 noundef zeroext %2) #0 {
  %4 = alloca ptr, align 8
  %5 = alloca ptr, align 8
  %6 = alloca i8, align 1
  store ptr %0, ptr %4, align 8
  store ptr %1, ptr %5, align 8
  %7 = zext i1 %2 to i8
  store i8 %7, ptr %6, align 1
  %8 = load ptr, ptr %4, align 8
  %9 = getelementptr inbounds nuw %struct.TableFunc, ptr %8, i32 0, i32 1
  %10 = load i32, ptr %9, align 4
  %11 = icmp eq i32 %10, 0
  br i1 %11, label %12, label %17

12:                                               ; preds = %3
  %13 = load ptr, ptr %4, align 8
  %14 = load ptr, ptr %5, align 8
  %15 = load i8, ptr %6, align 1, !range !4, !noundef !5
  %16 = trunc i8 %15 to i1
  call void @get_xmltable(ptr noundef %13, ptr noundef %14, i1 noundef zeroext %16)
  br label %28

17:                                               ; preds = %3
  %18 = load ptr, ptr %4, align 8
  %19 = getelementptr inbounds nuw %struct.TableFunc, ptr %18, i32 0, i32 1
  %20 = load i32, ptr %19, align 4
  %21 = icmp eq i32 %20, 1
  br i1 %21, label %22, label %27

22:                                               ; preds = %17
  %23 = load ptr, ptr %4, align 8
  %24 = load ptr, ptr %5, align 8
  %25 = load i8, ptr %6, align 1, !range !4, !noundef !5
  %26 = trunc i8 %25 to i1
  call void @get_json_table(ptr noundef %23, ptr noundef %24, i1 noundef zeroext %26)
  br label %27

27:                                               ; preds = %22, %17
  br label %28

28:                                               ; preds = %27, %12
  ret void
}