; Function Attrs: nounwind uwtable
define internal fastcc void @get_tablefunc(ptr noundef readonly captures(none) %0, ptr noundef %1, i1 noundef zeroext %2) unnamed_addr #0 {
  %4 = getelementptr inbounds nuw i8, ptr %0, i64 4
  %5 = load i32, ptr %4, align 4
  switch i32 %5, label %8 [
    i32 0, label %6
    i32 1, label %7
  ]

6:                                                ; preds = %3
  tail call fastcc void @get_xmltable(ptr noundef nonnull %0, ptr noundef %1, i1 noundef zeroext %2)
  br label %8

7:                                                ; preds = %3
  tail call fastcc void @get_json_table(ptr noundef nonnull %0, ptr noundef %1, i1 noundef zeroext %2)
  br label %8

8:                                                ; preds = %3, %7, %6
  ret void
}